target datalayout = "e-m:e-p270:32:32-p271:32:32-p272:64:64-i64:64-i128:128-f80:128-n8:16:32:64-S128"
target triple = "x86_64-pc-linux-gnu"

%struct.uv__queue = type { ptr, ptr }
%union.pthread_mutex_t = type { %struct.__pthread_mutex_s }
%struct.__pthread_mutex_s = type { i32, i32, i32, i32, i32, i16, i16, %struct.__pthread_internal_list }
%struct.__pthread_internal_list = type { ptr, ptr }
%struct.uv__work = type { ptr, ptr, ptr, %struct.uv__queue }
%struct.uv_loop_s = type { ptr, i32, %struct.uv__queue, %union.anon, ptr, i32, i64, i32, %struct.uv__queue, %struct.uv__queue, ptr, i32, i32, %struct.uv__queue, %union.pthread_mutex_t, %struct.uv_async_s, %union.pthread_rwlock_t, ptr, %struct.uv__queue, %struct.uv__queue, %struct.uv__queue, %struct.uv__queue, %struct.uv__queue, ptr, %struct.uv__io_s, i32, %struct.anon.1, i64, i64, [2 x i32], %struct.uv__io_s, %struct.uv_signal_s, i32, %struct.uv__io_s, ptr, i32 }
%union.anon = type { ptr }
%struct.uv_async_s = type { ptr, ptr, i32, ptr, %struct.uv__queue, %union.anon.0, ptr, i32, ptr, %struct.uv__queue, i32 }
%union.anon.0 = type { [4 x ptr] }
%union.pthread_rwlock_t = type { %struct.__pthread_rwlock_arch_t }
%struct.__pthread_rwlock_arch_t = type { i32, i32, i32, i32, i32, i32, i32, i32, i8, [7 x i8], i64, i32 }
%struct.anon.1 = type { ptr, i32 }
%struct.uv_signal_s = type { ptr, ptr, i32, ptr, %struct.uv__queue, %union.anon.2, ptr, i32, ptr, i32, %struct.anon.3, i32, i32 }
%union.anon.2 = type { [4 x ptr] }
%struct.anon.3 = type { ptr, ptr, ptr, i32 }
%struct.uv__io_s = type { ptr, %struct.uv__queue, %struct.uv__queue, i32, i32, i32 }
%struct.uv_work_s = type { ptr, i32, [6 x ptr], ptr, ptr, ptr, %struct.uv__work }
%struct.uv_req_s = type { ptr, i32, [6 x ptr] }
%struct.uv_fs_s = type { ptr, i32, [6 x ptr], i32, ptr, ptr, i64, ptr, ptr, %struct.uv_stat_t, ptr, i32, i32, i32, i32, ptr, i64, i32, i32, double, double, %struct.uv__work, [4 x %struct.uv_buf_t] }
%struct.uv_stat_t = type { i64, i64, i64, i64, i64, i64, i64, i64, i64, i64, i64, i64, %struct.uv_timespec_t, %struct.uv_timespec_t, %struct.uv_timespec_t, %struct.uv_timespec_t }
%struct.uv_timespec_t = type { i64, i64 }
%struct.uv_buf_t = type { ptr, i64 }
%struct.uv_getaddrinfo_s = type { ptr, i32, [6 x ptr], ptr, %struct.uv__work, ptr, ptr, ptr, ptr, ptr, i32 }
%struct.uv_getnameinfo_s = type { ptr, i32, [6 x ptr], ptr, %struct.uv__work, ptr, %struct.sockaddr_storage, i32, [1025 x i8], [32 x i8], i32 }
%struct.sockaddr_storage = type { i16, [118 x i8], i64 }
%struct.uv_random_s = type { ptr, i32, [6 x ptr], ptr, i32, ptr, i64, ptr, %struct.uv__work }

@mutex = internal global %union.pthread_mutex_t zeroinitializer, align 8
@once = internal global i32 0, align 4

; Function Attrs: inlinehint nounwind uwtable
define internal void @uv__queue_insert_tail(ptr noundef %0, ptr noundef %1) #4 {
  %3 = alloca ptr, align 8
  %4 = alloca ptr, align 8
  store ptr %0, ptr %3, align 8
  store ptr %1, ptr %4, align 8
  %5 = load ptr, ptr %3, align 8
  %6 = load ptr, ptr %4, align 8
  %7 = getelementptr inbounds nuw %struct.uv__queue, ptr %6, i32 0, i32 0
  store ptr %5, ptr %7, align 8
  %8 = load ptr, ptr %3, align 8
  %9 = getelementptr inbounds nuw %struct.uv__queue, ptr %8, i32 0, i32 1
  %10 = load ptr, ptr %9, align 8
  %11 = load ptr, ptr %4, align 8
  %12 = getelementptr inbounds nuw %struct.uv__queue, ptr %11, i32 0, i32 1
  store ptr %10, ptr %12, align 8
  %13 = load ptr, ptr %4, align 8
  %14 = load ptr, ptr %4, align 8
  %15 = getelementptr inbounds nuw %struct.uv__queue, ptr %14, i32 0, i32 1
  %16 = load ptr, ptr %15, align 8
  %17 = getelementptr inbounds nuw %struct.uv__queue, ptr %16, i32 0, i32 0
  store ptr %13, ptr %17, align 8
  %18 = load ptr, ptr %4, align 8
  %19 = load ptr, ptr %3, align 8
  %20 = getelementptr inbounds nuw %struct.uv__queue, ptr %19, i32 0, i32 1
  store ptr %18, ptr %20, align 8
  ret void
}

; Function Attrs: inlinehint nounwind uwtable
define internal void @uv__queue_remove(ptr noundef %0) #4 {
  %2 = alloca ptr, align 8
  store ptr %0, ptr %2, align 8
  %3 = load ptr, ptr %2, align 8
  %4 = getelementptr inbounds nuw %struct.uv__queue, ptr %3, i32 0, i32 0
  %5 = load ptr, ptr %4, align 8
  %6 = load ptr, ptr %2, align 8
  %7 = getelementptr inbounds nuw %struct.uv__queue, ptr %6, i32 0, i32 1
  %8 = load ptr, ptr %7, align 8
  %9 = getelementptr inbounds nuw %struct.uv__queue, ptr %8, i32 0, i32 0
  store ptr %5, ptr %9, align 8
  %10 = load ptr, ptr %2, align 8
  %11 = getelementptr inbounds nuw %struct.uv__queue, ptr %10, i32 0, i32 1
  %12 = load ptr, ptr %11, align 8
  %13 = load ptr, ptr %2, align 8
  %14 = getelementptr inbounds nuw %struct.uv__queue, ptr %13, i32 0, i32 0
  %15 = load ptr, ptr %14, align 8
  %16 = getelementptr inbounds nuw %struct.uv__queue, ptr %15, i32 0, i32 1
  store ptr %12, ptr %16, align 8
  ret void
}

; Function Attrs: inlinehint nounwind uwtable
define internal i32 @uv__queue_empty(ptr noundef %0) #4 {
  %2 = alloca ptr, align 8
  store ptr %0, ptr %2, align 8
  %3 = load ptr, ptr %2, align 8
  %4 = load ptr, ptr %2, align 8
  %5 = getelementptr inbounds nuw %struct.uv__queue, ptr %4, i32 0, i32 0
  %6 = load ptr, ptr %5, align 8
  %7 = icmp eq ptr %3, %6
  %8 = zext i1 %7 to i32
  ret i32 %8
}

; Function Attrs: nounwind uwtable
define internal i32 @uv__work_cancel(ptr noundef %0, ptr noundef %1, ptr noundef %2) #0 {
  %4 = alloca i32, align 4
  %5 = alloca ptr, align 8
  %6 = alloca ptr, align 8
  %7 = alloca ptr, align 8
  %8 = alloca i32, align 4
  %9 = alloca i32, align 4
  store ptr %0, ptr %5, align 8
  store ptr %1, ptr %6, align 8
  store ptr %2, ptr %7, align 8
  call void @llvm.lifetime.start.p0(i64 4, ptr %8) #8
  call void @uv_once(ptr noundef @once, ptr noundef @init_once)
  call void @uv_mutex_lock(ptr noundef @mutex)
  %10 = load ptr, ptr %7, align 8
  %11 = getelementptr inbounds nuw %struct.uv__work, ptr %10, i32 0, i32 2
  %12 = load ptr, ptr %11, align 8
  %13 = getelementptr inbounds nuw %struct.uv_loop_s, ptr %12, i32 0, i32 14
  call void @uv_mutex_lock(ptr noundef %13)
  %14 = load ptr, ptr %7, align 8
  %15 = getelementptr inbounds nuw %struct.uv__work, ptr %14, i32 0, i32 3
  %16 = call i32 @uv__queue_empty(ptr noundef %15)
  %17 = icmp ne i32 %16, 0
  br i1 %17, label %23, label %18

18:                                               ; preds = %3
  %19 = load ptr, ptr %7, align 8
  %20 = getelementptr inbounds nuw %struct.uv__work, ptr %19, i32 0, i32 0
  %21 = load ptr, ptr %20, align 8
  %22 = icmp ne ptr %21, null
  br label %23

23:                                               ; preds = %18, %3
  %24 = phi i1 [ false, %3 ], [ %22, %18 ]
  %25 = zext i1 %24 to i32
  store i32 %25, ptr %8, align 4
  %26 = load i32, ptr %8, align 4
  %27 = icmp ne i32 %26, 0
  br i1 %27, label %28, label %31

28:                                               ; preds = %23
  %29 = load ptr, ptr %7, align 8
  %30 = getelementptr inbounds nuw %struct.uv__work, ptr %29, i32 0, i32 3
  call void @uv__queue_remove(ptr noundef %30)
  br label %31

31:                                               ; preds = %28, %23
  %32 = load ptr, ptr %7, align 8
  %33 = getelementptr inbounds nuw %struct.uv__work, ptr %32, i32 0, i32 2
  %34 = load ptr, ptr %33, align 8
  %35 = getelementptr inbounds nuw %struct.uv_loop_s, ptr %34, i32 0, i32 14
  call void @uv_mutex_unlock(ptr noundef %35)
  call void @uv_mutex_unlock(ptr noundef @mutex)
  %36 = load i32, ptr %8, align 4
  %37 = icmp ne i32 %36, 0
  br i1 %37, label %39, label %38

38:                                               ; preds = %31
  store i32 -16, ptr %4, align 4
  store i32 1, ptr %9, align 4
  br label %53

39:                                               ; preds = %31
  %40 = load ptr, ptr %7, align 8
  %41 = getelementptr inbounds nuw %struct.uv__work, ptr %40, i32 0, i32 0
  store ptr @uv__cancelled, ptr %41, align 8
  %42 = load ptr, ptr %5, align 8
  %43 = getelementptr inbounds nuw %struct.uv_loop_s, ptr %42, i32 0, i32 14
  call void @uv_mutex_lock(ptr noundef %43)
  %44 = load ptr, ptr %5, align 8
  %45 = getelementptr inbounds nuw %struct.uv_loop_s, ptr %44, i32 0, i32 13
  %46 = load ptr, ptr %7, align 8
  %47 = getelementptr inbounds nuw %struct.uv__work, ptr %46, i32 0, i32 3
  call void @uv__queue_insert_tail(ptr noundef %45, ptr noundef %47)
  %48 = load ptr, ptr %5, align 8
  %49 = getelementptr inbounds nuw %struct.uv_loop_s, ptr %48, i32 0, i32 15
  %50 = call i32 @uv_async_send(ptr noundef %49)
  %51 = load ptr, ptr %5, align 8
  %52 = getelementptr inbounds nuw %struct.uv_loop_s, ptr %51, i32 0, i32 14
  call void @uv_mutex_unlock(ptr noundef %52)
  store i32 0, ptr %4, align 4
  store i32 1, ptr %9, align 4
  br label %53

53:                                               ; preds = %39, %38
  call void @llvm.lifetime.end.p0(i64 4, ptr %8) #8
  %54 = load i32, ptr %4, align 4
  ret i32 %54
}

; Function Attrs: nounwind uwtable
define dso_local i32 @uv_cancel(ptr noundef %0) #0 {
  %2 = alloca i32, align 4
  %3 = alloca ptr, align 8
  %4 = alloca ptr, align 8
  %5 = alloca ptr, align 8
  %6 = alloca i32, align 4
  store ptr %0, ptr %3, align 8
  call void @llvm.lifetime.start.p0(i64 8, ptr %4) #8
  call void @llvm.lifetime.start.p0(i64 8, ptr %5) #8
  %7 = load ptr, ptr %3, align 8
  %8 = getelementptr inbounds nuw %struct.uv_req_s, ptr %7, i32 0, i32 1
  %9 = load i32, ptr %8, align 8
  switch i32 %9, label %40 [
    i32 6, label %10
    i32 8, label %16
    i32 9, label %22
    i32 10, label %28
    i32 7, label %34
  ]

10:                                               ; preds = %1
  %11 = load ptr, ptr %3, align 8
  %12 = getelementptr inbounds nuw %struct.uv_fs_s, ptr %11, i32 0, i32 4
  %13 = load ptr, ptr %12, align 8
  store ptr %13, ptr %5, align 8
  %14 = load ptr, ptr %3, align 8
  %15 = getelementptr inbounds nuw %struct.uv_fs_s, ptr %14, i32 0, i32 21
  store ptr %15, ptr %4, align 8
  br label %41

16:                                               ; preds = %1
  %17 = load ptr, ptr %3, align 8
  %18 = getelementptr inbounds nuw %struct.uv_getaddrinfo_s, ptr %17, i32 0, i32 3
  %19 = load ptr, ptr %18, align 8
  store ptr %19, ptr %5, align 8
  %20 = load ptr, ptr %3, align 8
  %21 = getelementptr inbounds nuw %struct.uv_getaddrinfo_s, ptr %20, i32 0, i32 4
  store ptr %21, ptr %4, align 8
  br label %41

22:                                               ; preds = %1
  %23 = load ptr, ptr %3, align 8
  %24 = getelementptr inbounds nuw %struct.uv_getnameinfo_s, ptr %23, i32 0, i32 3
  %25 = load ptr, ptr %24, align 8
  store ptr %25, ptr %5, align 8
  %26 = load ptr, ptr %3, align 8
  %27 = getelementptr inbounds nuw %struct.uv_getnameinfo_s, ptr %26, i32 0, i32 4
  store ptr %27, ptr %4, align 8
  br label %41

28:                                               ; preds = %1
  %29 = load ptr, ptr %3, align 8
  %30 = getelementptr inbounds nuw %struct.uv_random_s, ptr %29, i32 0, i32 3
  %31 = load ptr, ptr %30, align 8
  store ptr %31, ptr %5, align 8
  %32 = load ptr, ptr %3, align 8
  %33 = getelementptr inbounds nuw %struct.uv_random_s, ptr %32, i32 0, i32 8
  store ptr %33, ptr %4, align 8
  br label %41

34:                                               ; preds = %1
  %35 = load ptr, ptr %3, align 8
  %36 = getelementptr inbounds nuw %struct.uv_work_s, ptr %35, i32 0, i32 3
  %37 = load ptr, ptr %36, align 8
  store ptr %37, ptr %5, align 8
  %38 = load ptr, ptr %3, align 8
  %39 = getelementptr inbounds nuw %struct.uv_work_s, ptr %38, i32 0, i32 6
  store ptr %39, ptr %4, align 8
  br label %41

40:                                               ; preds = %1
  store i32 -22, ptr %2, align 4
  store i32 1, ptr %6, align 4
  br label %46

41:                                               ; preds = %34, %28, %22, %16, %10
  %42 = load ptr, ptr %5, align 8
  %43 = load ptr, ptr %3, align 8
  %44 = load ptr, ptr %4, align 8
  %45 = call i32 @uv__work_cancel(ptr noundef %42, ptr noundef %43, ptr noundef %44)
  store i32 %45, ptr %2, align 4
  store i32 1, ptr %6, align 4
  br label %46

46:                                               ; preds = %41, %40
  call void @llvm.lifetime.end.p0(i64 8, ptr %5) #8
  call void @llvm.lifetime.end.p0(i64 8, ptr %4) #8
  %47 = load i32, ptr %2, align 4
  ret i32 %47
}