; Function Attrs: nounwind uwtable
define dso_local range(i32 -22, 1) i32 @uv_cancel(ptr noundef %0) local_unnamed_addr #0 {
  %2 = getelementptr inbounds nuw i8, ptr %0, i64 8
  %3 = load i32, ptr %2, align 8
  %switch.tableidx = add i32 %3, -6
  %4 = icmp ult i32 %switch.tableidx, 5
  br i1 %4, label %switch.lookup, label %31

switch.lookup:                                    ; preds = %1
  %5 = zext nneg i32 %switch.tableidx to i64
  %switch.gep = getelementptr inbounds nuw [5 x i64], ptr @switch.table.uv_cancel, i64 0, i64 %5
  %switch.load = load i64, ptr %switch.gep, align 8
  %6 = zext nneg i32 %switch.tableidx to i64
  %switch.gep17 = getelementptr inbounds nuw [5 x i64], ptr @switch.table.uv_cancel.4, i64 0, i64 %6
  %switch.load18 = load i64, ptr %switch.gep17, align 8
  %7 = getelementptr inbounds nuw i8, ptr %0, i64 %switch.load
  %8 = getelementptr inbounds nuw i8, ptr %0, i64 %switch.load18
  %.0 = load ptr, ptr %7, align 8
  tail call void @uv_once(ptr noundef nonnull @once, ptr noundef nonnull @init_once) #9
  tail call void @uv_mutex_lock(ptr noundef nonnull @mutex) #9
  %9 = getelementptr inbounds nuw i8, ptr %8, i64 16
  %10 = load ptr, ptr %9, align 8
  %11 = getelementptr inbounds nuw i8, ptr %10, i64 136
  tail call void @uv_mutex_lock(ptr noundef nonnull %11) #9
  %12 = getelementptr inbounds nuw i8, ptr %8, i64 24
  %13 = load ptr, ptr %12, align 8
  %.not.i = icmp eq ptr %12, %13
  br i1 %.not.i, label %.critedge.i, label %14

14:                                               ; preds = %switch.lookup
  %15 = load ptr, ptr %8, align 8
  %.not1.i = icmp eq ptr %15, null
  br i1 %.not1.i, label %.critedge.i, label %16

16:                                               ; preds = %14
  %17 = getelementptr inbounds nuw i8, ptr %8, i64 32
  %18 = load ptr, ptr %17, align 8
  store ptr %13, ptr %18, align 8
  %19 = load ptr, ptr %17, align 8
  %20 = getelementptr inbounds nuw i8, ptr %13, i64 8
  store ptr %19, ptr %20, align 8
  %21 = load ptr, ptr %9, align 8
  %22 = getelementptr inbounds nuw i8, ptr %21, i64 136
  tail call void @uv_mutex_unlock(ptr noundef nonnull %22) #9
  tail call void @uv_mutex_unlock(ptr noundef nonnull @mutex) #9
  store ptr @uv__cancelled, ptr %8, align 8
  %23 = getelementptr inbounds nuw i8, ptr %.0, i64 136
  tail call void @uv_mutex_lock(ptr noundef nonnull %23) #9
  %24 = getelementptr inbounds nuw i8, ptr %.0, i64 120
  store ptr %24, ptr %12, align 8
  %25 = getelementptr inbounds nuw i8, ptr %.0, i64 128
  %26 = load ptr, ptr %25, align 8
  store ptr %26, ptr %17, align 8
  store ptr %12, ptr %26, align 8
  store ptr %12, ptr %25, align 8
  %27 = getelementptr inbounds nuw i8, ptr %.0, i64 176
  %28 = tail call i32 @uv_async_send(ptr noundef nonnull %27) #9
  br label %uv__work_cancel.exit

.critedge.i:                                      ; preds = %14, %switch.lookup
  %29 = load ptr, ptr %9, align 8
  %30 = getelementptr inbounds nuw i8, ptr %29, i64 136
  tail call void @uv_mutex_unlock(ptr noundef nonnull %30) #9
  br label %uv__work_cancel.exit

uv__work_cancel.exit:                             ; preds = %16, %.critedge.i
  %mutex.sink.i = phi ptr [ @mutex, %.critedge.i ], [ %23, %16 ]
  %.0.i = phi i32 [ -16, %.critedge.i ], [ 0, %16 ]
  tail call void @uv_mutex_unlock(ptr noundef nonnull %mutex.sink.i) #9
  br label %31

31:                                               ; preds = %1, %uv__work_cancel.exit
  %.015 = phi i32 [ %.0.i, %uv__work_cancel.exit ], [ -22, %1 ]
  ret i32 %.015
}